target datalayout = "e-m:e-p270:32:32-p271:32:32-p272:64:64-i64:64-i128:128-f80:128-n8:16:32:64-S128"
target triple = "x86_64-pc-linux-gnu"

%"struct.std::_Rb_tree_header" = type { %"struct.std::_Rb_tree_node_base", i64 }
%"struct.std::_Rb_tree_node_base" = type { i32, ptr, ptr, ptr }
%"class.std::_Rb_tree.126" = type { %"struct.std::_Rb_tree<const jsonnet::internal::Identifier *, std::pair<const jsonnet::internal::Identifier *const, jsonnet::internal::(anonymous namespace)::HeapSimpleObject::Field>, std::_Select1st<std::pair<const jsonnet::internal::Identifier *const, jsonnet::internal::(anonymous namespace)::HeapSimpleObject::Field>>, std::less<const jsonnet::internal::Identifier *>>::_Rb_tree_impl" }
%"struct.std::_Rb_tree<const jsonnet::internal::Identifier *, std::pair<const jsonnet::internal::Identifier *const, jsonnet::internal::(anonymous namespace)::HeapSimpleObject::Field>, std::_Select1st<std::pair<const jsonnet::internal::Identifier *const, jsonnet::internal::(anonymous namespace)::HeapSimpleObject::Field>>, std::less<const jsonnet::internal::Identifier *>>::_Rb_tree_impl" = type { [8 x i8], %"struct.std::_Rb_tree_header" }
%"struct.std::_Rb_tree_node.251" = type { %"struct.std::_Rb_tree_node_base", %"struct.__gnu_cxx::__aligned_membuf.252" }
%"struct.__gnu_cxx::__aligned_membuf.252" = type { [24 x i8] }

; Function Attrs: mustprogress nounwind uwtable
define internal noundef ptr @_ZN9__gnu_cxx16__aligned_membufISt4pairIKPKN7jsonnet8internal10IdentifierENS3_12_GLOBAL__N_116HeapSimpleObject5FieldEEE7_M_addrEv(ptr noundef nonnull align 8 dereferenceable(24) %0) #5 align 2 {
  %2 = alloca ptr, align 8
  store ptr %0, ptr %2, align 8, !tbaa !1236
  %3 = load ptr, ptr %2, align 8
  %4 = getelementptr inbounds nuw %"struct.__gnu_cxx::__aligned_membuf.252", ptr %3, i32 0, i32 0
  ret ptr %4
}

; Function Attrs: mustprogress nounwind uwtable
define internal void @_ZNSt15__new_allocatorISt13_Rb_tree_nodeISt4pairIKPKN7jsonnet8internal10IdentifierENS3_12_GLOBAL__N_116HeapSimpleObject5FieldEEEE10deallocateEPSC_m(ptr noundef nonnull align 1 dereferenceable(1) %0, ptr noundef %1, i64 noundef %2) #5 align 2 {
  %4 = alloca ptr, align 8
  %5 = alloca ptr, align 8
  %6 = alloca i64, align 8
  store ptr %0, ptr %4, align 8, !tbaa !1343
  store ptr %1, ptr %5, align 8, !tbaa !1234
  store i64 %2, ptr %6, align 8, !tbaa !271
  %7 = load ptr, ptr %5, align 8, !tbaa !1234
  %8 = load i64, ptr %6, align 8, !tbaa !271
  %9 = mul i64 %8, 56
  call void @_ZdlPvm(ptr noundef %7, i64 noundef %9) #34
  ret void
}

; Function Attrs: mustprogress nounwind uwtable
define internal void @_ZNSt15__new_allocatorISt13_Rb_tree_nodeISt4pairIKPKN7jsonnet8internal10IdentifierENS3_12_GLOBAL__N_116HeapSimpleObject5FieldEEEE7destroyISB_EEvPT_(ptr noundef nonnull align 1 dereferenceable(1) %0, ptr noundef %1) #5 align 2 {
  %3 = alloca ptr, align 8
  %4 = alloca ptr, align 8
  store ptr %0, ptr %3, align 8, !tbaa !1343
  store ptr %1, ptr %4, align 8, !tbaa !1202
  ret void
}

; Function Attrs: mustprogress nounwind uwtable
define internal noundef ptr @_ZN9__gnu_cxx16__aligned_membufISt4pairIKPKN7jsonnet8internal10IdentifierENS3_12_GLOBAL__N_116HeapSimpleObject5FieldEEE6_M_ptrEv(ptr noundef nonnull align 8 dereferenceable(24) %0) #5 align 2 {
  %2 = alloca ptr, align 8
  store ptr %0, ptr %2, align 8, !tbaa !1236
  %3 = load ptr, ptr %2, align 8
  %4 = call noundef ptr @_ZN9__gnu_cxx16__aligned_membufISt4pairIKPKN7jsonnet8internal10IdentifierENS3_12_GLOBAL__N_116HeapSimpleObject5FieldEEE7_M_addrEv(ptr noundef nonnull align 8 dereferenceable(24) %3) #3
  ret ptr %4
}

; Function Attrs: mustprogress uwtable
define internal void @_ZNSt16allocator_traitsISaISt13_Rb_tree_nodeISt4pairIKPKN7jsonnet8internal10IdentifierENS3_12_GLOBAL__N_116HeapSimpleObject5FieldEEEEE10deallocateERSD_PSC_m(ptr noundef nonnull align 1 dereferenceable(1) %0, ptr noundef %1, i64 noundef %2) #4 align 2 {
  %4 = alloca ptr, align 8
  %5 = alloca ptr, align 8
  %6 = alloca i64, align 8
  store ptr %0, ptr %4, align 8, !tbaa !1341
  store ptr %1, ptr %5, align 8, !tbaa !1234
  store i64 %2, ptr %6, align 8, !tbaa !271
  %7 = load ptr, ptr %4, align 8, !tbaa !1341
  %8 = load ptr, ptr %5, align 8, !tbaa !1234
  %9 = load i64, ptr %6, align 8, !tbaa !271
  call void @_ZNSt15__new_allocatorISt13_Rb_tree_nodeISt4pairIKPKN7jsonnet8internal10IdentifierENS3_12_GLOBAL__N_116HeapSimpleObject5FieldEEEE10deallocateEPSC_m(ptr noundef nonnull align 1 dereferenceable(1) %7, ptr noundef %8, i64 noundef %9)
  ret void
}

; Function Attrs: noinline noreturn nounwind uwtable
define linkonce_odr hidden void @__clang_call_terminate(ptr noundef %0) #9 comdat {
  %2 = call ptr @__cxa_begin_catch(ptr %0) #3
  call void @_ZSt9terminatev() #32
  unreachable
}

; Function Attrs: mustprogress nounwind uwtable
define internal void @_ZNSt16allocator_traitsISaISt13_Rb_tree_nodeISt4pairIKPKN7jsonnet8internal10IdentifierENS3_12_GLOBAL__N_116HeapSimpleObject5FieldEEEEE7destroyISB_EEvRSD_PT_(ptr noundef nonnull align 1 dereferenceable(1) %0, ptr noundef %1) #5 align 2 {
  %3 = alloca ptr, align 8
  %4 = alloca ptr, align 8
  store ptr %0, ptr %3, align 8, !tbaa !1341
  store ptr %1, ptr %4, align 8, !tbaa !1202
  %5 = load ptr, ptr %3, align 8, !tbaa !1341
  %6 = load ptr, ptr %4, align 8, !tbaa !1202
  call void @_ZNSt15__new_allocatorISt13_Rb_tree_nodeISt4pairIKPKN7jsonnet8internal10IdentifierENS3_12_GLOBAL__N_116HeapSimpleObject5FieldEEEE7destroyISB_EEvPT_(ptr noundef nonnull align 1 dereferenceable(1) %5, ptr noundef %6) #3
  ret void
}

; Function Attrs: mustprogress nounwind uwtable
define internal noundef ptr @_ZNSt13_Rb_tree_nodeISt4pairIKPKN7jsonnet8internal10IdentifierENS2_12_GLOBAL__N_116HeapSimpleObject5FieldEEE9_M_valptrEv(ptr noundef nonnull align 8 dereferenceable(56) %0) #5 align 2 {
  %2 = alloca ptr, align 8
  store ptr %0, ptr %2, align 8, !tbaa !1234
  %3 = load ptr, ptr %2, align 8
  %4 = getelementptr inbounds nuw %"struct.std::_Rb_tree_node.251", ptr %3, i32 0, i32 1
  %5 = call noundef ptr @_ZN9__gnu_cxx16__aligned_membufISt4pairIKPKN7jsonnet8internal10IdentifierENS3_12_GLOBAL__N_116HeapSimpleObject5FieldEEE6_M_ptrEv(ptr noundef nonnull align 8 dereferenceable(24) %4) #3
  ret ptr %5
}

; Function Attrs: mustprogress nounwind uwtable
define internal noundef nonnull align 1 dereferenceable(1) ptr @_ZNSt8_Rb_treeIPKN7jsonnet8internal10IdentifierESt4pairIKS4_NS1_12_GLOBAL__N_116HeapSimpleObject5FieldEESt10_Select1stISA_ESt4lessIS4_ESaISA_EE21_M_get_Node_allocatorEv(ptr noundef nonnull align 8 dereferenceable(48) %0) #5 align 2 {
  %2 = alloca ptr, align 8
  store ptr %0, ptr %2, align 8, !tbaa !1232
  %3 = load ptr, ptr %2, align 8
  %4 = getelementptr inbounds nuw %"class.std::_Rb_tree.126", ptr %3, i32 0, i32 0
  ret ptr %4
}

; Function Attrs: mustprogress nounwind uwtable
define internal void @_ZNSt8_Rb_treeIPKN7jsonnet8internal10IdentifierESt4pairIKS4_NS1_12_GLOBAL__N_116HeapSimpleObject5FieldEESt10_Select1stISA_ESt4lessIS4_ESaISA_EE11_M_put_nodeEPSt13_Rb_tree_nodeISA_E(ptr noundef nonnull align 8 dereferenceable(48) %0, ptr noundef %1) #5 align 2 personality ptr @__gxx_personality_v0 {
  %3 = alloca ptr, align 8
  %4 = alloca ptr, align 8
  store ptr %0, ptr %3, align 8, !tbaa !1232
  store ptr %1, ptr %4, align 8, !tbaa !1234
  %5 = load ptr, ptr %3, align 8
  %6 = call noundef nonnull align 1 dereferenceable(1) ptr @_ZNSt8_Rb_treeIPKN7jsonnet8internal10IdentifierESt4pairIKS4_NS1_12_GLOBAL__N_116HeapSimpleObject5FieldEESt10_Select1stISA_ESt4lessIS4_ESaISA_EE21_M_get_Node_allocatorEv(ptr noundef nonnull align 8 dereferenceable(48) %5) #3
  %7 = load ptr, ptr %4, align 8, !tbaa !1234
  invoke void @_ZNSt16allocator_traitsISaISt13_Rb_tree_nodeISt4pairIKPKN7jsonnet8internal10IdentifierENS3_12_GLOBAL__N_116HeapSimpleObject5FieldEEEEE10deallocateERSD_PSC_m(ptr noundef nonnull align 1 dereferenceable(1) %6, ptr noundef %7, i64 noundef 1)
          to label %8 unwind label %9

8:                                                ; preds = %2
  ret void

9:                                                ; preds = %2
  %10 = landingpad { ptr, i32 }
          catch ptr null
  %11 = extractvalue { ptr, i32 } %10, 0
  call void @__clang_call_terminate(ptr %11) #32
  unreachable
}

; Function Attrs: mustprogress nounwind uwtable
define internal void @_ZNSt8_Rb_treeIPKN7jsonnet8internal10IdentifierESt4pairIKS4_NS1_12_GLOBAL__N_116HeapSimpleObject5FieldEESt10_Select1stISA_ESt4lessIS4_ESaISA_EE15_M_destroy_nodeEPSt13_Rb_tree_nodeISA_E(ptr noundef nonnull align 8 dereferenceable(48) %0, ptr noundef %1) #5 align 2 personality ptr @__gxx_personality_v0 {
  %3 = alloca ptr, align 8
  %4 = alloca ptr, align 8
  store ptr %0, ptr %3, align 8, !tbaa !1232
  store ptr %1, ptr %4, align 8, !tbaa !1234
  %5 = load ptr, ptr %3, align 8
  %6 = call noundef nonnull align 1 dereferenceable(1) ptr @_ZNSt8_Rb_treeIPKN7jsonnet8internal10IdentifierESt4pairIKS4_NS1_12_GLOBAL__N_116HeapSimpleObject5FieldEESt10_Select1stISA_ESt4lessIS4_ESaISA_EE21_M_get_Node_allocatorEv(ptr noundef nonnull align 8 dereferenceable(48) %5) #3
  %7 = load ptr, ptr %4, align 8, !tbaa !1234
  %8 = invoke noundef ptr @_ZNSt13_Rb_tree_nodeISt4pairIKPKN7jsonnet8internal10IdentifierENS2_12_GLOBAL__N_116HeapSimpleObject5FieldEEE9_M_valptrEv(ptr noundef nonnull align 8 dereferenceable(56) %7)
          to label %9 unwind label %10

9:                                                ; preds = %2
  call void @_ZNSt16allocator_traitsISaISt13_Rb_tree_nodeISt4pairIKPKN7jsonnet8internal10IdentifierENS3_12_GLOBAL__N_116HeapSimpleObject5FieldEEEEE7destroyISB_EEvRSD_PT_(ptr noundef nonnull align 1 dereferenceable(1) %6, ptr noundef %8) #3
  ret void

10:                                               ; preds = %2
  %11 = landingpad { ptr, i32 }
          catch ptr null
  %12 = extractvalue { ptr, i32 } %11, 0
  call void @__clang_call_terminate(ptr %12) #32
  unreachable
}

; Function Attrs: mustprogress nounwind uwtable
define internal void @_ZNSt8_Rb_treeIPKN7jsonnet8internal10IdentifierESt4pairIKS4_NS1_12_GLOBAL__N_116HeapSimpleObject5FieldEESt10_Select1stISA_ESt4lessIS4_ESaISA_EE12_M_drop_nodeEPSt13_Rb_tree_nodeISA_E(ptr noundef nonnull align 8 dereferenceable(48) %0, ptr noundef %1) #5 align 2 {
  %3 = alloca ptr, align 8
  %4 = alloca ptr, align 8
  store ptr %0, ptr %3, align 8, !tbaa !1232
  store ptr %1, ptr %4, align 8, !tbaa !1234
  %5 = load ptr, ptr %3, align 8
  %6 = load ptr, ptr %4, align 8, !tbaa !1234
  call void @_ZNSt8_Rb_treeIPKN7jsonnet8internal10IdentifierESt4pairIKS4_NS1_12_GLOBAL__N_116HeapSimpleObject5FieldEESt10_Select1stISA_ESt4lessIS4_ESaISA_EE15_M_destroy_nodeEPSt13_Rb_tree_nodeISA_E(ptr noundef nonnull align 8 dereferenceable(48) %5, ptr noundef %6) #3
  %7 = load ptr, ptr %4, align 8, !tbaa !1234
  call void @_ZNSt8_Rb_treeIPKN7jsonnet8internal10IdentifierESt4pairIKS4_NS1_12_GLOBAL__N_116HeapSimpleObject5FieldEESt10_Select1stISA_ESt4lessIS4_ESaISA_EE11_M_put_nodeEPSt13_Rb_tree_nodeISA_E(ptr noundef nonnull align 8 dereferenceable(48) %5, ptr noundef %7) #3
  ret void
}

; Function Attrs: mustprogress nounwind uwtable
define internal noundef ptr @_ZNSt8_Rb_treeIPKN7jsonnet8internal10IdentifierESt4pairIKS4_NS1_12_GLOBAL__N_116HeapSimpleObject5FieldEESt10_Select1stISA_ESt4lessIS4_ESaISA_EE7_S_leftEPSt18_Rb_tree_node_base(ptr noundef %0) #5 align 2 {
  %2 = alloca ptr, align 8
  store ptr %0, ptr %2, align 8, !tbaa !381
  %3 = load ptr, ptr %2, align 8, !tbaa !381
  %4 = getelementptr inbounds nuw %"struct.std::_Rb_tree_node_base", ptr %3, i32 0, i32 2
  %5 = load ptr, ptr %4, align 8, !tbaa !421
  ret ptr %5
}

; Function Attrs: mustprogress nounwind uwtable
define internal noundef ptr @_ZNSt8_Rb_treeIPKN7jsonnet8internal10IdentifierESt4pairIKS4_NS1_12_GLOBAL__N_116HeapSimpleObject5FieldEESt10_Select1stISA_ESt4lessIS4_ESaISA_EE8_S_rightEPSt18_Rb_tree_node_base(ptr noundef %0) #5 align 2 {
  %2 = alloca ptr, align 8
  store ptr %0, ptr %2, align 8, !tbaa !381
  %3 = load ptr, ptr %2, align 8, !tbaa !381
  %4 = getelementptr inbounds nuw %"struct.std::_Rb_tree_node_base", ptr %3, i32 0, i32 3
  %5 = load ptr, ptr %4, align 8, !tbaa !422
  ret ptr %5
}

; Function Attrs: mustprogress uwtable
define internal void @_ZNSt8_Rb_treeIPKN7jsonnet8internal10IdentifierESt4pairIKS4_NS1_12_GLOBAL__N_116HeapSimpleObject5FieldEESt10_Select1stISA_ESt4lessIS4_ESaISA_EE8_M_eraseEPSt13_Rb_tree_nodeISA_E(ptr noundef nonnull align 8 dereferenceable(48) %0, ptr noundef %1) #4 align 2 {
  %3 = alloca ptr, align 8
  %4 = alloca ptr, align 8
  %5 = alloca ptr, align 8
  store ptr %0, ptr %3, align 8, !tbaa !1232
  store ptr %1, ptr %4, align 8, !tbaa !1234
  %6 = load ptr, ptr %3, align 8
  br label %7

7:                                                ; preds = %10, %2
  %8 = load ptr, ptr %4, align 8, !tbaa !1234
  %9 = icmp ne ptr %8, null
  br i1 %9, label %10, label %17

10:                                               ; preds = %7
  %11 = load ptr, ptr %4, align 8, !tbaa !1234
  %12 = call noundef ptr @_ZNSt8_Rb_treeIPKN7jsonnet8internal10IdentifierESt4pairIKS4_NS1_12_GLOBAL__N_116HeapSimpleObject5FieldEESt10_Select1stISA_ESt4lessIS4_ESaISA_EE8_S_rightEPSt18_Rb_tree_node_base(ptr noundef %11) #3
  call void @_ZNSt8_Rb_treeIPKN7jsonnet8internal10IdentifierESt4pairIKS4_NS1_12_GLOBAL__N_116HeapSimpleObject5FieldEESt10_Select1stISA_ESt4lessIS4_ESaISA_EE8_M_eraseEPSt13_Rb_tree_nodeISA_E(ptr noundef nonnull align 8 dereferenceable(48) %6, ptr noundef %12)
  call void @llvm.lifetime.start.p0(i64 8, ptr %5) #3
  %13 = load ptr, ptr %4, align 8, !tbaa !1234
  %14 = call noundef ptr @_ZNSt8_Rb_treeIPKN7jsonnet8internal10IdentifierESt4pairIKS4_NS1_12_GLOBAL__N_116HeapSimpleObject5FieldEESt10_Select1stISA_ESt4lessIS4_ESaISA_EE7_S_leftEPSt18_Rb_tree_node_base(ptr noundef %13) #3
  store ptr %14, ptr %5, align 8, !tbaa !1234
  %15 = load ptr, ptr %4, align 8, !tbaa !1234
  call void @_ZNSt8_Rb_treeIPKN7jsonnet8internal10IdentifierESt4pairIKS4_NS1_12_GLOBAL__N_116HeapSimpleObject5FieldEESt10_Select1stISA_ESt4lessIS4_ESaISA_EE12_M_drop_nodeEPSt13_Rb_tree_nodeISA_E(ptr noundef nonnull align 8 dereferenceable(48) %6, ptr noundef %15) #3
  %16 = load ptr, ptr %5, align 8, !tbaa !1234
  store ptr %16, ptr %4, align 8, !tbaa !1234
  call void @llvm.lifetime.end.p0(i64 8, ptr %5) #3
  br label %7, !llvm.loop !1340

17:                                               ; preds = %7
  ret void
}